target datalayout = "e-m:e-p270:32:32-p271:32:32-p272:64:64-i64:64-i128:128-f80:128-n8:16:32:64-S128"
target triple = "x86_64-pc-linux-gnu"

%struct.__loadu_si128 = type { <2 x i64> }
%struct.__storeu_si128 = type { <2 x i64> }

; Function Attrs: alwaysinline nounwind uwtable
define internal void @_mm_storeu_si128(ptr noundef %0, <2 x i64> noundef %1) #3 {
  %3 = alloca ptr, align 8
  %4 = alloca <2 x i64>, align 16
  store ptr %0, ptr %3, align 8, !tbaa !3
  store <2 x i64> %1, ptr %4, align 16, !tbaa !13
  %5 = load <2 x i64>, ptr %4, align 16, !tbaa !13
  %6 = load ptr, ptr %3, align 8, !tbaa !3
  %7 = getelementptr inbounds nuw %struct.__storeu_si128, ptr %6, i32 0, i32 0
  store <2 x i64> %5, ptr %7, align 1, !tbaa !13
  ret void
}

; Function Attrs: alwaysinline nounwind uwtable
define internal <2 x i64> @_mm_add_epi16(<2 x i64> noundef %0, <2 x i64> noundef %1) #3 {
  %3 = alloca <2 x i64>, align 16
  %4 = alloca <2 x i64>, align 16
  store <2 x i64> %0, ptr %3, align 16, !tbaa !13
  store <2 x i64> %1, ptr %4, align 16, !tbaa !13
  %5 = load <2 x i64>, ptr %3, align 16, !tbaa !13
  %6 = bitcast <2 x i64> %5 to <8 x i16>
  %7 = load <2 x i64>, ptr %4, align 16, !tbaa !13
  %8 = bitcast <2 x i64> %7 to <8 x i16>
  %9 = add <8 x i16> %6, %8
  %10 = bitcast <8 x i16> %9 to <2 x i64>
  ret <2 x i64> %10
}

; Function Attrs: alwaysinline nounwind uwtable
define internal <2 x i64> @_mm_sub_epi16(<2 x i64> noundef %0, <2 x i64> noundef %1) #3 {
  %3 = alloca <2 x i64>, align 16
  %4 = alloca <2 x i64>, align 16
  store <2 x i64> %0, ptr %3, align 16, !tbaa !13
  store <2 x i64> %1, ptr %4, align 16, !tbaa !13
  %5 = load <2 x i64>, ptr %3, align 16, !tbaa !13
  %6 = bitcast <2 x i64> %5 to <8 x i16>
  %7 = load <2 x i64>, ptr %4, align 16, !tbaa !13
  %8 = bitcast <2 x i64> %7 to <8 x i16>
  %9 = sub <8 x i16> %6, %8
  %10 = bitcast <8 x i16> %9 to <2 x i64>
  ret <2 x i64> %10
}

; Function Attrs: alwaysinline nounwind uwtable
define internal <2 x i64> @_mm_loadu_si128(ptr noundef %0) #3 {
  %2 = alloca ptr, align 8
  store ptr %0, ptr %2, align 8, !tbaa !3
  %3 = load ptr, ptr %2, align 8, !tbaa !3
  %4 = getelementptr inbounds nuw %struct.__loadu_si128, ptr %3, i32 0, i32 0
  %5 = load <2 x i64>, ptr %4, align 1, !tbaa !13
  ret <2 x i64> %5
}

; Function Attrs: nounwind uwtable
define internal void @SharpYuvUpdateRGB_SSE2(ptr noundef %0, ptr noundef %1, ptr noundef %2, i32 noundef %3) #1 {
  %5 = alloca ptr, align 8
  %6 = alloca ptr, align 8
  %7 = alloca ptr, align 8
  %8 = alloca i32, align 4
  %9 = alloca i32, align 4
  %10 = alloca <2 x i64>, align 16
  %11 = alloca <2 x i64>, align 16
  %12 = alloca <2 x i64>, align 16
  %13 = alloca <2 x i64>, align 16
  %14 = alloca <2 x i64>, align 16
  %15 = alloca i32, align 4
  store ptr %0, ptr %5, align 8, !tbaa !7
  store ptr %1, ptr %6, align 8, !tbaa !7
  store ptr %2, ptr %7, align 8, !tbaa !7
  store i32 %3, ptr %8, align 4, !tbaa !9
  call void @llvm.lifetime.start.p0(i64 4, ptr %9) #7
  store i32 0, ptr %9, align 4, !tbaa !9
  store i32 0, ptr %9, align 4, !tbaa !9
  br label %16

16:                                               ; preds = %48, %4
  %17 = load i32, ptr %9, align 4, !tbaa !9
  %18 = add nsw i32 %17, 8
  %19 = load i32, ptr %8, align 4, !tbaa !9
  %20 = icmp sle i32 %18, %19
  br i1 %20, label %21, label %51

21:                                               ; preds = %16
  call void @llvm.lifetime.start.p0(i64 16, ptr %10) #7
  %22 = load ptr, ptr %5, align 8, !tbaa !7
  %23 = load i32, ptr %9, align 4, !tbaa !9
  %24 = sext i32 %23 to i64
  %25 = getelementptr inbounds i16, ptr %22, i64 %24
  %26 = call <2 x i64> @_mm_loadu_si128(ptr noundef %25)
  store <2 x i64> %26, ptr %10, align 16, !tbaa !13
  call void @llvm.lifetime.start.p0(i64 16, ptr %11) #7
  %27 = load ptr, ptr %6, align 8, !tbaa !7
  %28 = load i32, ptr %9, align 4, !tbaa !9
  %29 = sext i32 %28 to i64
  %30 = getelementptr inbounds i16, ptr %27, i64 %29
  %31 = call <2 x i64> @_mm_loadu_si128(ptr noundef %30)
  store <2 x i64> %31, ptr %11, align 16, !tbaa !13
  call void @llvm.lifetime.start.p0(i64 16, ptr %12) #7
  %32 = load ptr, ptr %7, align 8, !tbaa !7
  %33 = load i32, ptr %9, align 4, !tbaa !9
  %34 = sext i32 %33 to i64
  %35 = getelementptr inbounds i16, ptr %32, i64 %34
  %36 = call <2 x i64> @_mm_loadu_si128(ptr noundef %35)
  store <2 x i64> %36, ptr %12, align 16, !tbaa !13
  call void @llvm.lifetime.start.p0(i64 16, ptr %13) #7
  %37 = load <2 x i64>, ptr %10, align 16, !tbaa !13
  %38 = load <2 x i64>, ptr %11, align 16, !tbaa !13
  %39 = call <2 x i64> @_mm_sub_epi16(<2 x i64> noundef %37, <2 x i64> noundef %38)
  store <2 x i64> %39, ptr %13, align 16, !tbaa !13
  call void @llvm.lifetime.start.p0(i64 16, ptr %14) #7
  %40 = load <2 x i64>, ptr %12, align 16, !tbaa !13
  %41 = load <2 x i64>, ptr %13, align 16, !tbaa !13
  %42 = call <2 x i64> @_mm_add_epi16(<2 x i64> noundef %40, <2 x i64> noundef %41)
  store <2 x i64> %42, ptr %14, align 16, !tbaa !13
  %43 = load ptr, ptr %7, align 8, !tbaa !7
  %44 = load i32, ptr %9, align 4, !tbaa !9
  %45 = sext i32 %44 to i64
  %46 = getelementptr inbounds i16, ptr %43, i64 %45
  %47 = load <2 x i64>, ptr %14, align 16, !tbaa !13
  call void @_mm_storeu_si128(ptr noundef %46, <2 x i64> noundef %47)
  call void @llvm.lifetime.end.p0(i64 16, ptr %14) #7
  call void @llvm.lifetime.end.p0(i64 16, ptr %13) #7
  call void @llvm.lifetime.end.p0(i64 16, ptr %12) #7
  call void @llvm.lifetime.end.p0(i64 16, ptr %11) #7
  call void @llvm.lifetime.end.p0(i64 16, ptr %10) #7
  br label %48

48:                                               ; preds = %21
  %49 = load i32, ptr %9, align 4, !tbaa !9
  %50 = add nsw i32 %49, 8
  store i32 %50, ptr %9, align 4, !tbaa !9
  br label %16, !llvm.loop !19

51:                                               ; preds = %16
  br label %52

52:                                               ; preds = %79, %51
  %53 = load i32, ptr %9, align 4, !tbaa !9
  %54 = load i32, ptr %8, align 4, !tbaa !9
  %55 = icmp slt i32 %53, %54
  br i1 %55, label %56, label %82

56:                                               ; preds = %52
  call void @llvm.lifetime.start.p0(i64 4, ptr %15) #7
  %57 = load ptr, ptr %5, align 8, !tbaa !7
  %58 = load i32, ptr %9, align 4, !tbaa !9
  %59 = sext i32 %58 to i64
  %60 = getelementptr inbounds i16, ptr %57, i64 %59
  %61 = load i16, ptr %60, align 2, !tbaa !16
  %62 = sext i16 %61 to i32
  %63 = load ptr, ptr %6, align 8, !tbaa !7
  %64 = load i32, ptr %9, align 4, !tbaa !9
  %65 = sext i32 %64 to i64
  %66 = getelementptr inbounds i16, ptr %63, i64 %65
  %67 = load i16, ptr %66, align 2, !tbaa !16
  %68 = sext i16 %67 to i32
  %69 = sub nsw i32 %62, %68
  store i32 %69, ptr %15, align 4, !tbaa !9
  %70 = load i32, ptr %15, align 4, !tbaa !9
  %71 = load ptr, ptr %7, align 8, !tbaa !7
  %72 = load i32, ptr %9, align 4, !tbaa !9
  %73 = sext i32 %72 to i64
  %74 = getelementptr inbounds i16, ptr %71, i64 %73
  %75 = load i16, ptr %74, align 2, !tbaa !16
  %76 = sext i16 %75 to i32
  %77 = add nsw i32 %76, %70
  %78 = trunc i32 %77 to i16
  store i16 %78, ptr %74, align 2, !tbaa !16
  call void @llvm.lifetime.end.p0(i64 4, ptr %15) #7
  br label %79

79:                                               ; preds = %56
  %80 = load i32, ptr %9, align 4, !tbaa !9
  %81 = add nsw i32 %80, 1
  store i32 %81, ptr %9, align 4, !tbaa !9
  br label %52, !llvm.loop !20

82:                                               ; preds = %52
  call void @llvm.lifetime.end.p0(i64 4, ptr %9) #7
  ret void
}