; Function Attrs: nofree norecurse nosync nounwind memory(argmem: readwrite) uwtable
define internal void @SharpYuvUpdateRGB_SSE2(ptr noundef readonly captures(none) %0, ptr noundef readonly captures(none) %1, ptr noundef captures(none) %2, i32 noundef %3) #1 {
  %.not27 = icmp slt i32 %3, 8
  br i1 %.not27, label %.preheader, label %.lr.ph.preheader

.lr.ph.preheader:                                 ; preds = %4
  %5 = zext nneg i32 %3 to i64
  br label %.lr.ph

.preheader.loopexit:                              ; preds = %.lr.ph
  %6 = trunc nuw nsw i64 %indvars.iv to i32
  br label %.preheader

.preheader:                                       ; preds = %.preheader.loopexit, %4
  %.0.lcssa = phi i32 [ 0, %4 ], [ %6, %.preheader.loopexit ]
  %7 = icmp slt i32 %.0.lcssa, %3
  br i1 %7, label %.lr.ph30.preheader, label %._crit_edge

.lr.ph30.preheader:                               ; preds = %.preheader
  %8 = zext nneg i32 %.0.lcssa to i64
  %wide.trip.count = zext i32 %3 to i64
  br label %.lr.ph30

.lr.ph:                                           ; preds = %.lr.ph.preheader, %.lr.ph
  %indvars.iv31 = phi i64 [ 0, %.lr.ph.preheader ], [ %indvars.iv.next32, %.lr.ph ]
  %indvars.iv = phi i64 [ 8, %.lr.ph.preheader ], [ %indvars.iv.next, %.lr.ph ]
  %9 = getelementptr inbounds nuw i16, ptr %0, i64 %indvars.iv31
  %10 = load <8 x i16>, ptr %9, align 1, !tbaa !7
  %11 = getelementptr inbounds nuw i16, ptr %1, i64 %indvars.iv31
  %12 = load <8 x i16>, ptr %11, align 1, !tbaa !7
  %13 = getelementptr inbounds nuw i16, ptr %2, i64 %indvars.iv31
  %14 = load <8 x i16>, ptr %13, align 1, !tbaa !7
  %15 = sub <8 x i16> %10, %12
  %16 = add <8 x i16> %15, %14
  store <8 x i16> %16, ptr %13, align 1, !tbaa !7
  %indvars.iv.next = add nuw nsw i64 %indvars.iv, 8
  %.not = icmp samesign ugt i64 %indvars.iv.next, %5
  %indvars.iv.next32 = add nuw nsw i64 %indvars.iv31, 8
  br i1 %.not, label %.preheader.loopexit, label %.lr.ph, !llvm.loop !13

.lr.ph30:                                         ; preds = %.lr.ph30.preheader, %.lr.ph30
  %indvars.iv36 = phi i64 [ %8, %.lr.ph30.preheader ], [ %indvars.iv.next37, %.lr.ph30 ]
  %17 = getelementptr inbounds nuw i16, ptr %0, i64 %indvars.iv36
  %18 = load i16, ptr %17, align 2, !tbaa !10
  %19 = getelementptr inbounds nuw i16, ptr %1, i64 %indvars.iv36
  %20 = load i16, ptr %19, align 2, !tbaa !10
  %21 = sub i16 %18, %20
  %22 = getelementptr inbounds nuw i16, ptr %2, i64 %indvars.iv36
  %23 = load i16, ptr %22, align 2, !tbaa !10
  %24 = add i16 %21, %23
  store i16 %24, ptr %22, align 2, !tbaa !10
  %indvars.iv.next37 = add nuw nsw i64 %indvars.iv36, 1
  %exitcond.not = icmp eq i64 %indvars.iv.next37, %wide.trip.count
  br i1 %exitcond.not, label %._crit_edge, label %.lr.ph30, !llvm.loop !14

._crit_edge:                                      ; preds = %.lr.ph30, %.preheader
  ret void
}